target datalayout = "e-m:e-p270:32:32-p271:32:32-p272:64:64-i64:64-i128:128-f80:128-n8:16:32:64-S128"
target triple = "x86_64-pc-linux-gnu"

%struct.multi_pack_index = type { ptr, ptr, i64, ptr, ptr, i64, i32, i8, i8, i8, i32, i32, i32, i32, i32, ptr, i64, ptr, i64, ptr, ptr, ptr, ptr, i64, ptr, i64, ptr, i32, i32, ptr, ptr, ptr, [0 x i8] }
%struct.pack_midx_entry = type { %struct.object_id, i32, i64, i64, i8 }
%struct.object_id = type { [32 x i8], i32 }
%struct.midx_fanout = type { ptr, i64, i64 }

@.str.16 = private unnamed_addr constant [13 x i8] c"midx-write.c\00", align 1
@.str.40 = private unnamed_addr constant [27 x i8] c"size_t overflow: %lu * %lu\00", align 1
@.str.47 = private unnamed_addr constant [50 x i8] c"negative growth in midx_fanout_grow() (%lu < %lu)\00", align 1

; Function Attrs: inlinehint nounwind uwtable
define internal i64 @st_mult(i64 noundef %0, i64 noundef %1) #4 {
  %3 = alloca i64, align 8
  %4 = alloca i64, align 8
  store i64 %0, ptr %3, align 8, !tbaa !72
  store i64 %1, ptr %4, align 8, !tbaa !72
  %5 = load i64, ptr %3, align 8, !tbaa !72
  %6 = icmp ne i64 %5, 0
  br i1 %6, label %7, label %15

7:                                                ; preds = %2
  %8 = load i64, ptr %4, align 8, !tbaa !72
  %9 = load i64, ptr %3, align 8, !tbaa !72
  %10 = udiv i64 -1, %9
  %11 = icmp ugt i64 %8, %10
  br i1 %11, label %12, label %15

12:                                               ; preds = %7
  %13 = load i64, ptr %3, align 8, !tbaa !72
  %14 = load i64, ptr %4, align 8, !tbaa !72
  call void (ptr, ...) @die(ptr noundef @.str.40, i64 noundef %13, i64 noundef %14) #12
  unreachable

15:                                               ; preds = %7, %2
  %16 = load i64, ptr %3, align 8, !tbaa !72
  %17 = load i64, ptr %4, align 8, !tbaa !72
  %18 = mul i64 %16, %17
  ret i64 %18
}

; Function Attrs: inlinehint nounwind uwtable
define internal i32 @default_swab32(i32 noundef %0) #4 {
  %2 = alloca i32, align 4
  store i32 %0, ptr %2, align 4, !tbaa !11
  %3 = load i32, ptr %2, align 4, !tbaa !11
  %4 = and i32 %3, -16777216
  %5 = lshr i32 %4, 24
  %6 = load i32, ptr %2, align 4, !tbaa !11
  %7 = and i32 %6, 16711680
  %8 = lshr i32 %7, 8
  %9 = or i32 %5, %8
  %10 = load i32, ptr %2, align 4, !tbaa !11
  %11 = and i32 %10, 65280
  %12 = shl i32 %11, 8
  %13 = or i32 %9, %12
  %14 = load i32, ptr %2, align 4, !tbaa !11
  %15 = and i32 %14, 255
  %16 = shl i32 %15, 24
  %17 = or i32 %13, %16
  ret i32 %17
}

; Function Attrs: nounwind uwtable
define internal i32 @nth_midxed_pack_midx_entry(ptr noundef %0, ptr noundef %1, i32 noundef %2) #0 {
  %4 = alloca i32, align 4
  %5 = alloca ptr, align 8
  %6 = alloca ptr, align 8
  %7 = alloca i32, align 4
  store ptr %0, ptr %5, align 8, !tbaa !48
  store ptr %1, ptr %6, align 8, !tbaa !152
  store i32 %2, ptr %7, align 4, !tbaa !11
  %8 = load i32, ptr %7, align 4, !tbaa !11
  %9 = load ptr, ptr %5, align 8, !tbaa !48
  %10 = getelementptr inbounds nuw %struct.multi_pack_index, ptr %9, i32 0, i32 11
  %11 = load i32, ptr %10, align 4, !tbaa !11
  %12 = load ptr, ptr %5, align 8, !tbaa !48
  %13 = getelementptr inbounds nuw %struct.multi_pack_index, ptr %12, i32 0, i32 27
  %14 = load i32, ptr %13, align 8, !tbaa !11
  %15 = add i32 %11, %14
  %16 = icmp uge i32 %8, %15
  br i1 %16, label %17, label %18

17:                                               ; preds = %3
  store i32 1, ptr %4, align 4
  br label %36

18:                                               ; preds = %3
  %19 = load ptr, ptr %6, align 8, !tbaa !152
  %20 = getelementptr inbounds nuw %struct.pack_midx_entry, ptr %19, i32 0, i32 0
  %21 = load ptr, ptr %5, align 8, !tbaa !48
  %22 = load i32, ptr %7, align 4, !tbaa !11
  %23 = call ptr @nth_midxed_object_oid(ptr noundef %20, ptr noundef %21, i32 noundef %22)
  %24 = load ptr, ptr %5, align 8, !tbaa !48
  %25 = load i32, ptr %7, align 4, !tbaa !11
  %26 = call i32 @nth_midxed_pack_int_id(ptr noundef %24, i32 noundef %25)
  %27 = load ptr, ptr %6, align 8, !tbaa !152
  %28 = getelementptr inbounds nuw %struct.pack_midx_entry, ptr %27, i32 0, i32 1
  store i32 %26, ptr %28, align 4, !tbaa !156
  %29 = load ptr, ptr %5, align 8, !tbaa !48
  %30 = load i32, ptr %7, align 4, !tbaa !11
  %31 = call i64 @nth_midxed_offset(ptr noundef %29, i32 noundef %30)
  %32 = load ptr, ptr %6, align 8, !tbaa !152
  %33 = getelementptr inbounds nuw %struct.pack_midx_entry, ptr %32, i32 0, i32 3
  store i64 %31, ptr %33, align 8, !tbaa !76
  %34 = load ptr, ptr %6, align 8, !tbaa !152
  %35 = getelementptr inbounds nuw %struct.pack_midx_entry, ptr %34, i32 0, i32 2
  store i64 0, ptr %35, align 8, !tbaa !207
  store i32 0, ptr %4, align 4
  br label %36

36:                                               ; preds = %18, %17
  %37 = load i32, ptr %4, align 4
  ret i32 %37
}

; Function Attrs: nounwind uwtable
define internal void @midx_fanout_grow(ptr noundef %0, i64 noundef %1) #0 {
  %3 = alloca ptr, align 8
  %4 = alloca i64, align 8
  store ptr %0, ptr %3, align 8, !tbaa !201
  store i64 %1, ptr %4, align 8, !tbaa !72
  %5 = load i64, ptr %4, align 8, !tbaa !72
  %6 = load ptr, ptr %3, align 8, !tbaa !201
  %7 = getelementptr inbounds nuw %struct.midx_fanout, ptr %6, i32 0, i32 1
  %8 = load i64, ptr %7, align 8, !tbaa !142
  %9 = icmp ult i64 %5, %8
  br i1 %9, label %10, label %15

10:                                               ; preds = %2
  %11 = load i64, ptr %4, align 8, !tbaa !72
  %12 = load ptr, ptr %3, align 8, !tbaa !201
  %13 = getelementptr inbounds nuw %struct.midx_fanout, ptr %12, i32 0, i32 1
  %14 = load i64, ptr %13, align 8, !tbaa !142
  call void (ptr, i32, ptr, ...) @BUG_fl(ptr noundef @.str.16, i32 noundef 251, ptr noundef @.str.47, i64 noundef %11, i64 noundef %14) #12
  unreachable

15:                                               ; preds = %2
  br label %16

16:                                               ; preds = %15
  %17 = load i64, ptr %4, align 8, !tbaa !72
  %18 = load ptr, ptr %3, align 8, !tbaa !201
  %19 = getelementptr inbounds nuw %struct.midx_fanout, ptr %18, i32 0, i32 2
  %20 = load i64, ptr %19, align 8, !tbaa !139
  %21 = icmp ugt i64 %17, %20
  br i1 %21, label %22, label %55

22:                                               ; preds = %16
  %23 = load ptr, ptr %3, align 8, !tbaa !201
  %24 = getelementptr inbounds nuw %struct.midx_fanout, ptr %23, i32 0, i32 2
  %25 = load i64, ptr %24, align 8, !tbaa !139
  %26 = add i64 %25, 16
  %27 = mul i64 %26, 3
  %28 = udiv i64 %27, 2
  %29 = load i64, ptr %4, align 8, !tbaa !72
  %30 = icmp ult i64 %28, %29
  br i1 %30, label %31, label %35

31:                                               ; preds = %22
  %32 = load i64, ptr %4, align 8, !tbaa !72
  %33 = load ptr, ptr %3, align 8, !tbaa !201
  %34 = getelementptr inbounds nuw %struct.midx_fanout, ptr %33, i32 0, i32 2
  store i64 %32, ptr %34, align 8, !tbaa !139
  br label %44

35:                                               ; preds = %22
  %36 = load ptr, ptr %3, align 8, !tbaa !201
  %37 = getelementptr inbounds nuw %struct.midx_fanout, ptr %36, i32 0, i32 2
  %38 = load i64, ptr %37, align 8, !tbaa !139
  %39 = add i64 %38, 16
  %40 = mul i64 %39, 3
  %41 = udiv i64 %40, 2
  %42 = load ptr, ptr %3, align 8, !tbaa !201
  %43 = getelementptr inbounds nuw %struct.midx_fanout, ptr %42, i32 0, i32 2
  store i64 %41, ptr %43, align 8, !tbaa !139
  br label %44

44:                                               ; preds = %35, %31
  %45 = load ptr, ptr %3, align 8, !tbaa !201
  %46 = getelementptr inbounds nuw %struct.midx_fanout, ptr %45, i32 0, i32 0
  %47 = load ptr, ptr %46, align 8, !tbaa !141
  %48 = load ptr, ptr %3, align 8, !tbaa !201
  %49 = getelementptr inbounds nuw %struct.midx_fanout, ptr %48, i32 0, i32 2
  %50 = load i64, ptr %49, align 8, !tbaa !139
  %51 = call i64 @st_mult(i64 noundef 64, i64 noundef %50)
  %52 = call ptr @xrealloc(ptr noundef %47, i64 noundef %51)
  %53 = load ptr, ptr %3, align 8, !tbaa !201
  %54 = getelementptr inbounds nuw %struct.midx_fanout, ptr %53, i32 0, i32 0
  store ptr %52, ptr %54, align 8, !tbaa !141
  br label %55

55:                                               ; preds = %44, %16
  br label %56

56:                                               ; preds = %55
  ret void
}

; Function Attrs: inlinehint nounwind uwtable
define internal i32 @git_bswap32(i32 noundef %0) #4 {
  %2 = alloca i32, align 4
  %3 = alloca i32, align 4
  store i32 %0, ptr %2, align 4, !tbaa !11
  call void @llvm.lifetime.start.p0(i64 4, ptr %3) #11
  %4 = load i32, ptr %2, align 4, !tbaa !11
  %5 = call i1 @llvm.is.constant.i32(i32 %4)
  br i1 %5, label %6, label %9

6:                                                ; preds = %1
  %7 = load i32, ptr %2, align 4, !tbaa !11
  %8 = call i32 @default_swab32(i32 noundef %7)
  store i32 %8, ptr %3, align 4, !tbaa !11
  br label %12

9:                                                ; preds = %1
  %10 = load i32, ptr %2, align 4, !tbaa !11
  %11 = call i32 asm "bswap $0", "=r,0,~{dirflag},~{fpsr},~{flags}"(i32 %10) #15, !srcloc !206
  store i32 %11, ptr %3, align 4, !tbaa !11
  br label %12

12:                                               ; preds = %9, %6
  %13 = load i32, ptr %3, align 4, !tbaa !11
  call void @llvm.lifetime.end.p0(i64 4, ptr %3) #11
  ret i32 %13
}

; Function Attrs: nounwind uwtable
define internal void @midx_fanout_add_midx_fanout(ptr noundef %0, ptr noundef %1, i32 noundef %2, i32 noundef %3) #0 {
  %5 = alloca ptr, align 8
  %6 = alloca ptr, align 8
  %7 = alloca i32, align 4
  %8 = alloca i32, align 4
  %9 = alloca i32, align 4
  %10 = alloca i32, align 4
  %11 = alloca i32, align 4
  store ptr %0, ptr %5, align 8, !tbaa !201
  store ptr %1, ptr %6, align 8, !tbaa !48
  store i32 %2, ptr %7, align 4, !tbaa !11
  store i32 %3, ptr %8, align 4, !tbaa !11
  call void @llvm.lifetime.start.p0(i64 4, ptr %9) #11
  %12 = load ptr, ptr %6, align 8, !tbaa !48
  %13 = getelementptr inbounds nuw %struct.multi_pack_index, ptr %12, i32 0, i32 27
  %14 = load i32, ptr %13, align 8, !tbaa !11
  store i32 %14, ptr %9, align 4, !tbaa !11
  call void @llvm.lifetime.start.p0(i64 4, ptr %10) #11
  call void @llvm.lifetime.start.p0(i64 4, ptr %11) #11
  %15 = load ptr, ptr %6, align 8, !tbaa !48
  %16 = getelementptr inbounds nuw %struct.multi_pack_index, ptr %15, i32 0, i32 26
  %17 = load ptr, ptr %16, align 8, !tbaa !48
  %18 = icmp ne ptr %17, null
  br i1 %18, label %19, label %26

19:                                               ; preds = %4
  %20 = load ptr, ptr %5, align 8, !tbaa !201
  %21 = load ptr, ptr %6, align 8, !tbaa !48
  %22 = getelementptr inbounds nuw %struct.multi_pack_index, ptr %21, i32 0, i32 26
  %23 = load ptr, ptr %22, align 8, !tbaa !48
  %24 = load i32, ptr %7, align 4, !tbaa !11
  %25 = load i32, ptr %8, align 4, !tbaa !11
  call void @midx_fanout_add_midx_fanout(ptr noundef %20, ptr noundef %23, i32 noundef %24, i32 noundef %25)
  br label %26

26:                                               ; preds = %19, %4
  %27 = load i32, ptr %7, align 4, !tbaa !11
  %28 = icmp ne i32 %27, 0
  br i1 %28, label %29, label %41

29:                                               ; preds = %26
  %30 = load ptr, ptr %6, align 8, !tbaa !48
  %31 = getelementptr inbounds nuw %struct.multi_pack_index, ptr %30, i32 0, i32 19
  %32 = load ptr, ptr %31, align 8, !tbaa !108
  %33 = load i32, ptr %7, align 4, !tbaa !11
  %34 = sub i32 %33, 1
  %35 = zext i32 %34 to i64
  %36 = getelementptr inbounds nuw i32, ptr %32, i64 %35
  %37 = load i32, ptr %36, align 4, !tbaa !11
  %38 = call i32 @git_bswap32(i32 noundef %37)
  %39 = load i32, ptr %9, align 4, !tbaa !11
  %40 = add i32 %39, %38
  store i32 %40, ptr %9, align 4, !tbaa !11
  br label %41

41:                                               ; preds = %29, %26
  %42 = load ptr, ptr %6, align 8, !tbaa !48
  %43 = getelementptr inbounds nuw %struct.multi_pack_index, ptr %42, i32 0, i32 27
  %44 = load i32, ptr %43, align 8, !tbaa !11
  %45 = load ptr, ptr %6, align 8, !tbaa !48
  %46 = getelementptr inbounds nuw %struct.multi_pack_index, ptr %45, i32 0, i32 19
  %47 = load ptr, ptr %46, align 8, !tbaa !108
  %48 = load i32, ptr %7, align 4, !tbaa !11
  %49 = zext i32 %48 to i64
  %50 = getelementptr inbounds nuw i32, ptr %47, i64 %49
  %51 = load i32, ptr %50, align 4, !tbaa !11
  %52 = call i32 @git_bswap32(i32 noundef %51)
  %53 = add i32 %44, %52
  store i32 %53, ptr %10, align 4, !tbaa !11
  %54 = load i32, ptr %9, align 4, !tbaa !11
  store i32 %54, ptr %11, align 4, !tbaa !11
  br label %55

55:                                               ; preds = %100, %41
  %56 = load i32, ptr %11, align 4, !tbaa !11
  %57 = load i32, ptr %10, align 4, !tbaa !11
  %58 = icmp ult i32 %56, %57
  br i1 %58, label %59, label %103

59:                                               ; preds = %55
  %60 = load i32, ptr %8, align 4, !tbaa !11
  %61 = icmp sgt i32 %60, -1
  br i1 %61, label %62, label %69

62:                                               ; preds = %59
  %63 = load i32, ptr %8, align 4, !tbaa !11
  %64 = load ptr, ptr %6, align 8, !tbaa !48
  %65 = load i32, ptr %11, align 4, !tbaa !11
  %66 = call i32 @nth_midxed_pack_int_id(ptr noundef %64, i32 noundef %65)
  %67 = icmp eq i32 %63, %66
  br i1 %67, label %68, label %69

68:                                               ; preds = %62
  br label %100

69:                                               ; preds = %62, %59
  %70 = load ptr, ptr %5, align 8, !tbaa !201
  %71 = load ptr, ptr %5, align 8, !tbaa !201
  %72 = getelementptr inbounds nuw %struct.midx_fanout, ptr %71, i32 0, i32 1
  %73 = load i64, ptr %72, align 8, !tbaa !142
  %74 = add i64 %73, 1
  call void @midx_fanout_grow(ptr noundef %70, i64 noundef %74)
  %75 = load ptr, ptr %6, align 8, !tbaa !48
  %76 = load ptr, ptr %5, align 8, !tbaa !201
  %77 = getelementptr inbounds nuw %struct.midx_fanout, ptr %76, i32 0, i32 0
  %78 = load ptr, ptr %77, align 8, !tbaa !141
  %79 = load ptr, ptr %5, align 8, !tbaa !201
  %80 = getelementptr inbounds nuw %struct.midx_fanout, ptr %79, i32 0, i32 1
  %81 = load i64, ptr %80, align 8, !tbaa !142
  %82 = getelementptr inbounds nuw %struct.pack_midx_entry, ptr %78, i64 %81
  %83 = load i32, ptr %11, align 4, !tbaa !11
  %84 = call i32 @nth_midxed_pack_midx_entry(ptr noundef %75, ptr noundef %82, i32 noundef %83)
  %85 = load ptr, ptr %5, align 8, !tbaa !201
  %86 = getelementptr inbounds nuw %struct.midx_fanout, ptr %85, i32 0, i32 0
  %87 = load ptr, ptr %86, align 8, !tbaa !141
  %88 = load ptr, ptr %5, align 8, !tbaa !201
  %89 = getelementptr inbounds nuw %struct.midx_fanout, ptr %88, i32 0, i32 1
  %90 = load i64, ptr %89, align 8, !tbaa !142
  %91 = getelementptr inbounds nuw %struct.pack_midx_entry, ptr %87, i64 %90
  %92 = getelementptr inbounds nuw %struct.pack_midx_entry, ptr %91, i32 0, i32 4
  %93 = load i8, ptr %92, align 8
  %94 = and i8 %93, -2
  %95 = or i8 %94, 0
  store i8 %95, ptr %92, align 8
  %96 = load ptr, ptr %5, align 8, !tbaa !201
  %97 = getelementptr inbounds nuw %struct.midx_fanout, ptr %96, i32 0, i32 1
  %98 = load i64, ptr %97, align 8, !tbaa !142
  %99 = add i64 %98, 1
  store i64 %99, ptr %97, align 8, !tbaa !142
  br label %100

100:                                              ; preds = %69, %68
  %101 = load i32, ptr %11, align 4, !tbaa !11
  %102 = add i32 %101, 1
  store i32 %102, ptr %11, align 4, !tbaa !11
  br label %55, !llvm.loop !203

103:                                              ; preds = %55
  call void @llvm.lifetime.end.p0(i64 4, ptr %11) #11
  call void @llvm.lifetime.end.p0(i64 4, ptr %10) #11
  call void @llvm.lifetime.end.p0(i64 4, ptr %9) #11
  ret void
}