; Function Attrs: nounwind uwtable
define internal fastcc void @midx_fanout_add_midx_fanout(ptr noundef nonnull captures(none) %0, ptr noundef nonnull %1, i32 noundef range(i32 0, 256) %2, i32 noundef %3) unnamed_addr #0 {
  %5 = getelementptr inbounds nuw i8, ptr %1, i64 176
  %6 = load i32, ptr %5, align 8, !tbaa !40
  %7 = getelementptr inbounds nuw i8, ptr %1, i64 168
  %8 = load ptr, ptr %7, align 8, !tbaa !47
  %.not = icmp eq ptr %8, null
  br i1 %.not, label %10, label %9

9:                                                ; preds = %4
  tail call fastcc void @midx_fanout_add_midx_fanout(ptr noundef %0, ptr noundef %8, i32 noundef %2, i32 noundef %3)
  br label %10

10:                                               ; preds = %9, %4
  %.not33 = icmp eq i32 %2, 0
  %.phi.trans.insert = getelementptr inbounds nuw i8, ptr %1, i64 112
  %.pre = load ptr, ptr %.phi.trans.insert, align 8, !tbaa !216
  br i1 %.not33, label %._crit_edge45, label %git_bswap32.exit

git_bswap32.exit:                                 ; preds = %10
  %11 = zext nneg i32 %2 to i64
  %12 = getelementptr i32, ptr %.pre, i64 %11
  %13 = getelementptr i8, ptr %12, i64 -4
  %14 = load i32, ptr %13, align 4, !tbaa !40
  %15 = tail call i32 asm "bswap $0", "=r,0,~{dirflag},~{fpsr},~{flags}"(i32 %14) #22, !srcloc !117
  %16 = add i32 %15, %6
  br label %._crit_edge45

._crit_edge45:                                    ; preds = %10, %git_bswap32.exit
  %.pre-phi = phi i64 [ %11, %git_bswap32.exit ], [ 0, %10 ]
  %.029 = phi i32 [ %16, %git_bswap32.exit ], [ %6, %10 ]
  %17 = load i32, ptr %5, align 8, !tbaa !40
  %18 = getelementptr inbounds nuw i32, ptr %.pre, i64 %.pre-phi
  %19 = load i32, ptr %18, align 4, !tbaa !40
  %20 = tail call i32 asm "bswap $0", "=r,0,~{dirflag},~{fpsr},~{flags}"(i32 %19) #22, !srcloc !117
  %21 = add i32 %20, %17
  %22 = icmp ult i32 %.029, %21
  br i1 %22, label %.lr.ph, label %._crit_edge

.lr.ph:                                           ; preds = %._crit_edge45
  %23 = icmp sgt i32 %3, -1
  %24 = getelementptr inbounds nuw i8, ptr %0, i64 8
  %25 = getelementptr inbounds nuw i8, ptr %0, i64 16
  %26 = getelementptr inbounds nuw i8, ptr %1, i64 60
  br label %27

27:                                               ; preds = %.lr.ph, %65
  %.040 = phi i32 [ %.029, %.lr.ph ], [ %66, %65 ]
  br i1 %23, label %28, label %31

28:                                               ; preds = %27
  %29 = tail call i32 @nth_midxed_pack_int_id(ptr noundef nonnull %1, i32 noundef %.040) #19
  %30 = icmp eq i32 %3, %29
  br i1 %30, label %65, label %31

31:                                               ; preds = %28, %27
  %32 = load i64, ptr %24, align 8, !tbaa !80
  %33 = add i64 %32, 1
  %34 = icmp eq i64 %32, -1
  br i1 %34, label %35, label %36

35:                                               ; preds = %31
  tail call void (ptr, i32, ptr, ...) @BUG_fl(ptr noundef nonnull @.str.16, i32 noundef 251, ptr noundef nonnull @.str.47, i64 noundef %33, i64 noundef -1) #20
  unreachable

36:                                               ; preds = %31
  %37 = load i64, ptr %25, align 8, !tbaa !75
  %38 = icmp ugt i64 %33, %37
  br i1 %38, label %39, label %.midx_fanout_grow.exit_crit_edge

.midx_fanout_grow.exit_crit_edge:                 ; preds = %36
  %.pre48.pre = load ptr, ptr %0, align 8, !tbaa !77
  br label %midx_fanout_grow.exit

39:                                               ; preds = %36
  %40 = mul i64 %37, 3
  %41 = add i64 %40, 48
  %42 = lshr i64 %41, 1
  %..i = tail call i64 @llvm.umax.i64(i64 %42, i64 %33)
  store i64 %..i, ptr %25, align 8, !tbaa !75
  %mul.ov.i.i = icmp ugt i64 %..i, 288230376151711743
  br i1 %mul.ov.i.i, label %43, label %st_mult.exit.i

43:                                               ; preds = %39
  tail call void (ptr, ...) @die(ptr noundef nonnull @.str.40, i64 noundef 64, i64 noundef %..i) #20
  unreachable

st_mult.exit.i:                                   ; preds = %39
  %44 = load ptr, ptr %0, align 8, !tbaa !77
  %45 = shl nuw i64 %..i, 6
  %46 = tail call ptr @xrealloc(ptr noundef %44, i64 noundef %45) #19
  store ptr %46, ptr %0, align 8, !tbaa !77
  %.pre50.pre = load i64, ptr %24, align 8, !tbaa !80
  br label %midx_fanout_grow.exit

midx_fanout_grow.exit:                            ; preds = %.midx_fanout_grow.exit_crit_edge, %st_mult.exit.i
  %.pre50 = phi i64 [ %32, %.midx_fanout_grow.exit_crit_edge ], [ %.pre50.pre, %st_mult.exit.i ]
  %.pre48 = phi ptr [ %.pre48.pre, %.midx_fanout_grow.exit_crit_edge ], [ %46, %st_mult.exit.i ]
  %47 = load i32, ptr %26, align 4, !tbaa !40
  %48 = load i32, ptr %5, align 8, !tbaa !40
  %49 = add i32 %48, %47
  %.not.i = icmp ult i32 %.040, %49
  br i1 %.not.i, label %50, label %nth_midxed_pack_midx_entry.exit

50:                                               ; preds = %midx_fanout_grow.exit
  %51 = getelementptr inbounds nuw %struct.pack_midx_entry, ptr %.pre48, i64 %.pre50
  %52 = tail call ptr @nth_midxed_object_oid(ptr noundef %51, ptr noundef nonnull %1, i32 noundef %.040) #19
  %53 = tail call i32 @nth_midxed_pack_int_id(ptr noundef nonnull %1, i32 noundef %.040) #19
  %54 = getelementptr inbounds nuw i8, ptr %51, i64 36
  store i32 %53, ptr %54, align 4, !tbaa !81
  %55 = tail call i64 @nth_midxed_offset(ptr noundef nonnull %1, i32 noundef %.040) #19
  %56 = getelementptr inbounds nuw i8, ptr %51, i64 48
  store i64 %55, ptr %56, align 8, !tbaa !85
  %57 = getelementptr inbounds nuw i8, ptr %51, i64 40
  store i64 0, ptr %57, align 8, !tbaa !84
  %.pre47 = load ptr, ptr %0, align 8, !tbaa !77
  %.pre49 = load i64, ptr %24, align 8, !tbaa !80
  br label %nth_midxed_pack_midx_entry.exit

nth_midxed_pack_midx_entry.exit:                  ; preds = %midx_fanout_grow.exit, %50
  %58 = phi i64 [ %.pre50, %midx_fanout_grow.exit ], [ %.pre49, %50 ]
  %59 = phi ptr [ %.pre48, %midx_fanout_grow.exit ], [ %.pre47, %50 ]
  %60 = getelementptr inbounds nuw %struct.pack_midx_entry, ptr %59, i64 %58, i32 4
  %61 = load i8, ptr %60, align 8
  %62 = and i8 %61, -2
  store i8 %62, ptr %60, align 8
  %63 = load i64, ptr %24, align 8, !tbaa !80
  %64 = add i64 %63, 1
  store i64 %64, ptr %24, align 8, !tbaa !80
  br label %65

65:                                               ; preds = %28, %nth_midxed_pack_midx_entry.exit
  %66 = add i32 %.040, 1
  %exitcond.not = icmp eq i32 %66, %21
  br i1 %exitcond.not, label %._crit_edge, label %27, !llvm.loop !217

._crit_edge:                                      ; preds = %65, %._crit_edge45
  ret void
}